target datalayout = "e-m:e-p270:32:32-p271:32:32-p272:64:64-i64:64-i128:128-f80:128-n8:16:32:64-S128"
target triple = "x86_64-pc-linux-gnu"

%"class.cv::dynafu::Quaternion" = type { %"class.cv::Vec" }
%"class.cv::Vec" = type { %"class.cv::Matx" }
%"class.cv::Matx" = type { [4 x float] }

; Function Attrs: inlinehint mustprogress nounwind uwtable
define linkonce_odr hidden void @_ZN2cv4MatxIfLi4ELi1EEC2Effff(ptr noundef nonnull align 4 dereferenceable(16) %0, float noundef %1, float noundef %2, float noundef %3, float noundef %4) unnamed_addr #3 comdat align 2 {
  %6 = alloca ptr, align 8
  %7 = alloca float, align 4
  %8 = alloca float, align 4
  %9 = alloca float, align 4
  %10 = alloca float, align 4
  %11 = alloca i32, align 4
  store ptr %0, ptr %6, align 8, !tbaa !55
  store float %1, ptr %7, align 4, !tbaa !10
  store float %2, ptr %8, align 4, !tbaa !10
  store float %3, ptr %9, align 4, !tbaa !10
  store float %4, ptr %10, align 4, !tbaa !10
  %12 = load ptr, ptr %6, align 8
  %13 = load float, ptr %7, align 4, !tbaa !10
  %14 = getelementptr inbounds nuw %"class.cv::Matx", ptr %12, i32 0, i32 0
  %15 = getelementptr inbounds [4 x float], ptr %14, i64 0, i64 0
  store float %13, ptr %15, align 4, !tbaa !10
  %16 = load float, ptr %8, align 4, !tbaa !10
  %17 = getelementptr inbounds nuw %"class.cv::Matx", ptr %12, i32 0, i32 0
  %18 = getelementptr inbounds [4 x float], ptr %17, i64 0, i64 1
  store float %16, ptr %18, align 4, !tbaa !10
  %19 = load float, ptr %9, align 4, !tbaa !10
  %20 = getelementptr inbounds nuw %"class.cv::Matx", ptr %12, i32 0, i32 0
  %21 = getelementptr inbounds [4 x float], ptr %20, i64 0, i64 2
  store float %19, ptr %21, align 4, !tbaa !10
  %22 = load float, ptr %10, align 4, !tbaa !10
  %23 = getelementptr inbounds nuw %"class.cv::Matx", ptr %12, i32 0, i32 0
  %24 = getelementptr inbounds [4 x float], ptr %23, i64 0, i64 3
  store float %22, ptr %24, align 4, !tbaa !10
  call void @llvm.lifetime.start.p0(i64 4, ptr %11) #13
  store i32 4, ptr %11, align 4, !tbaa !16
  br label %25

25:                                               ; preds = %34, %5
  %26 = load i32, ptr %11, align 4, !tbaa !16
  %27 = icmp slt i32 %26, 4
  br i1 %27, label %29, label %28

28:                                               ; preds = %25
  call void @llvm.lifetime.end.p0(i64 4, ptr %11) #13
  br label %37

29:                                               ; preds = %25
  %30 = getelementptr inbounds nuw %"class.cv::Matx", ptr %12, i32 0, i32 0
  %31 = load i32, ptr %11, align 4, !tbaa !16
  %32 = sext i32 %31 to i64
  %33 = getelementptr inbounds [4 x float], ptr %30, i64 0, i64 %32
  store float 0.000000e+00, ptr %33, align 4, !tbaa !10
  br label %34

34:                                               ; preds = %29
  %35 = load i32, ptr %11, align 4, !tbaa !16
  %36 = add nsw i32 %35, 1
  store i32 %36, ptr %11, align 4, !tbaa !16
  br label %25, !llvm.loop !65

37:                                               ; preds = %28
  ret void
}

; Function Attrs: inlinehint mustprogress uwtable
define linkonce_odr hidden void @_ZN2cv3VecIfLi4EEC2Effff(ptr noundef nonnull align 4 dereferenceable(16) %0, float noundef %1, float noundef %2, float noundef %3, float noundef %4) unnamed_addr #1 comdat align 2 {
  %6 = alloca ptr, align 8
  %7 = alloca float, align 4
  %8 = alloca float, align 4
  %9 = alloca float, align 4
  %10 = alloca float, align 4
  store ptr %0, ptr %6, align 8, !tbaa !8
  store float %1, ptr %7, align 4, !tbaa !10
  store float %2, ptr %8, align 4, !tbaa !10
  store float %3, ptr %9, align 4, !tbaa !10
  store float %4, ptr %10, align 4, !tbaa !10
  %11 = load ptr, ptr %6, align 8
  %12 = load float, ptr %7, align 4, !tbaa !10
  %13 = load float, ptr %8, align 4, !tbaa !10
  %14 = load float, ptr %9, align 4, !tbaa !10
  %15 = load float, ptr %10, align 4, !tbaa !10
  call void @_ZN2cv4MatxIfLi4ELi1EEC2Effff(ptr noundef nonnull align 4 dereferenceable(16) %11, float noundef %12, float noundef %13, float noundef %14, float noundef %15)
  ret void
}

; Function Attrs: mustprogress uwtable
define hidden void @_ZN2cv6dynafu10QuaternionC2Effff(ptr noundef nonnull align 4 dereferenceable(16) %0, float noundef %1, float noundef %2, float noundef %3, float noundef %4) unnamed_addr #0 align 2 {
  %6 = alloca ptr, align 8
  %7 = alloca float, align 4
  %8 = alloca float, align 4
  %9 = alloca float, align 4
  %10 = alloca float, align 4
  store ptr %0, ptr %6, align 8, !tbaa !3
  store float %1, ptr %7, align 4, !tbaa !10
  store float %2, ptr %8, align 4, !tbaa !10
  store float %3, ptr %9, align 4, !tbaa !10
  store float %4, ptr %10, align 4, !tbaa !10
  %11 = load ptr, ptr %6, align 8
  %12 = getelementptr inbounds nuw %"class.cv::dynafu::Quaternion", ptr %11, i32 0, i32 0
  %13 = load float, ptr %7, align 4, !tbaa !10
  %14 = load float, ptr %8, align 4, !tbaa !10
  %15 = load float, ptr %9, align 4, !tbaa !10
  %16 = load float, ptr %10, align 4, !tbaa !10
  call void @_ZN2cv3VecIfLi4EEC2Effff(ptr noundef nonnull align 4 dereferenceable(16) %12, float noundef %13, float noundef %14, float noundef %15, float noundef %16)
  ret void
}