; Function Attrs: mustprogress nofree norecurse nosync nounwind willreturn memory(argmem: write) uwtable
define hidden void @_ZN2cv6dynafu10QuaternionC2Effff(ptr noundef nonnull writeonly align 4 captures(none) dereferenceable(16) initializes((0, 16)) %0, float noundef %1, float noundef %2, float noundef %3, float noundef %4) unnamed_addr #0 align 2 {
  store float %1, ptr %0, align 4, !tbaa !3
  %6 = getelementptr inbounds nuw i8, ptr %0, i64 4
  store float %2, ptr %6, align 4, !tbaa !3
  %7 = getelementptr inbounds nuw i8, ptr %0, i64 8
  store float %3, ptr %7, align 4, !tbaa !3
  %8 = getelementptr inbounds nuw i8, ptr %0, i64 12
  store float %4, ptr %8, align 4, !tbaa !3
  ret void
}